; Function Attrs: nounwind uwtable
define ptr @CRYPTO_gcm128_new(ptr noundef %0, ptr noundef %1) local_unnamed_addr #0 {
  %3 = tail call noalias ptr @CRYPTO_malloc(i64 noundef 448, ptr noundef nonnull @.str, i32 noundef 1620) #6
  %.not = icmp eq ptr %3, null
  br i1 %.not, label %22, label %4

4:                                                ; preds = %2
  tail call void @llvm.memset.p0.i64(ptr noundef nonnull align 8 dereferenceable(448) %3, i8 0, i64 448, i1 false)
  %5 = getelementptr inbounds nuw i8, ptr %3, i64 384
  store ptr %1, ptr %5, align 8, !tbaa !7
  %6 = getelementptr inbounds nuw i8, ptr %3, i64 392
  store ptr %0, ptr %6, align 8, !tbaa !11
  %7 = getelementptr inbounds nuw i8, ptr %3, i64 80
  tail call void %1(ptr noundef nonnull %7, ptr noundef nonnull %7, ptr noundef %0) #6
  %8 = load i64, ptr %7, align 8, !tbaa !12
  %9 = tail call i64 asm "bswapq $0", "=r,0,~{dirflag},~{fpsr},~{flags}"(i64 %8) #7, !srcloc !13
  store i64 %9, ptr %7, align 8, !tbaa !12
  %10 = getelementptr inbounds nuw i8, ptr %3, i64 88
  %11 = load i64, ptr %10, align 8, !tbaa !12
  %12 = tail call i64 asm "bswapq $0", "=r,0,~{dirflag},~{fpsr},~{flags}"(i64 %11) #7, !srcloc !14
  store i64 %12, ptr %10, align 8, !tbaa !12
  %13 = getelementptr inbounds nuw i8, ptr %3, i64 352
  store ptr @gcm_init_4bit, ptr %13, align 8, !tbaa !15
  %14 = load i32, ptr getelementptr inbounds nuw (i8, ptr @OPENSSL_ia32cap_P, i64 4), align 4, !tbaa !3
  %15 = and i32 %14, 2
  %.not.i.i = icmp eq i32 %15, 0
  br i1 %.not.i.i, label %CRYPTO_gcm128_init.exit, label %.sink.split.i.i

.sink.split.i.i:                                  ; preds = %4
  %16 = and i32 %14, 272629760
  %17 = icmp eq i32 %16, 272629760
  %gcm_init_avx.gcm_init_clmul.i.i = select i1 %17, ptr @gcm_init_avx, ptr @gcm_init_clmul
  %gcm_gmult_avx.gcm_gmult_clmul.i.i = select i1 %17, ptr @gcm_gmult_avx, ptr @gcm_gmult_clmul
  %gcm_ghash_avx.gcm_ghash_clmul.i.i = select i1 %17, ptr @gcm_ghash_avx, ptr @gcm_ghash_clmul
  store ptr %gcm_init_avx.gcm_init_clmul.i.i, ptr %13, align 8, !tbaa !15
  br label %CRYPTO_gcm128_init.exit

CRYPTO_gcm128_init.exit:                          ; preds = %4, %.sink.split.i.i
  %18 = phi ptr [ @gcm_init_4bit, %4 ], [ %gcm_init_avx.gcm_init_clmul.i.i, %.sink.split.i.i ]
  %gcm_gmult_avx.sink.i.i = phi ptr [ @gcm_gmult_4bit, %4 ], [ %gcm_gmult_avx.gcm_gmult_clmul.i.i, %.sink.split.i.i ]
  %gcm_ghash_avx.sink.i.i = phi ptr [ @gcm_ghash_4bit, %4 ], [ %gcm_ghash_avx.gcm_ghash_clmul.i.i, %.sink.split.i.i ]
  %19 = getelementptr inbounds nuw i8, ptr %3, i64 360
  %20 = getelementptr inbounds nuw i8, ptr %3, i64 368
  store ptr %gcm_gmult_avx.sink.i.i, ptr %20, align 8, !tbaa !16
  store ptr %gcm_ghash_avx.sink.i.i, ptr %19, align 8, !tbaa !17
  %21 = getelementptr inbounds nuw i8, ptr %3, i64 96
  tail call void %18(ptr noundef nonnull %21, ptr noundef nonnull %7) #6
  br label %22

22:                                               ; preds = %CRYPTO_gcm128_init.exit, %2
  ret ptr %3
}